target datalayout = "e-m:e-p270:32:32-p271:32:32-p272:64:64-i64:64-i128:128-f80:128-n8:16:32:64-S128"
target triple = "x86_64-pc-linux-gnu"

%struct.ggml_tensor = type { i32, ptr, [4 x i64], [4 x i64], i32, [16 x i32], i32, [10 x ptr], ptr, i64, ptr, [64 x i8], ptr, [8 x i8] }

; Function Attrs: nounwind uwtable
define ptr @ggml_conv_1d_dw(ptr noundef %0, ptr noundef %1, ptr noundef %2, i32 noundef %3, i32 noundef %4, i32 noundef %5) #5 {
  %7 = alloca ptr, align 8
  %8 = alloca ptr, align 8
  %9 = alloca ptr, align 8
  %10 = alloca i32, align 4
  %11 = alloca i32, align 4
  %12 = alloca i32, align 4
  %13 = alloca ptr, align 8
  %14 = alloca ptr, align 8
  %15 = alloca ptr, align 8
  %16 = alloca ptr, align 8
  store ptr %0, ptr %7, align 8, !tbaa !48
  store ptr %1, ptr %8, align 8, !tbaa !54
  store ptr %2, ptr %9, align 8, !tbaa !54
  store i32 %3, ptr %10, align 4, !tbaa !8
  store i32 %4, ptr %11, align 4, !tbaa !8
  store i32 %5, ptr %12, align 4, !tbaa !8
  call void @llvm.lifetime.start.p0(i64 8, ptr %13) #14
  %17 = load ptr, ptr %7, align 8, !tbaa !48
  %18 = load ptr, ptr %8, align 8, !tbaa !54
  %19 = load ptr, ptr %8, align 8, !tbaa !54
  %20 = getelementptr inbounds nuw %struct.ggml_tensor, ptr %19, i32 0, i32 2
  %21 = getelementptr inbounds [4 x i64], ptr %20, i64 0, i64 0
  %22 = load i64, ptr %21, align 8, !tbaa !19
  %23 = load ptr, ptr %8, align 8, !tbaa !54
  %24 = getelementptr inbounds nuw %struct.ggml_tensor, ptr %23, i32 0, i32 2
  %25 = getelementptr inbounds [4 x i64], ptr %24, i64 0, i64 1
  %26 = load i64, ptr %25, align 8, !tbaa !19
  %27 = load ptr, ptr %8, align 8, !tbaa !54
  %28 = getelementptr inbounds nuw %struct.ggml_tensor, ptr %27, i32 0, i32 2
  %29 = getelementptr inbounds [4 x i64], ptr %28, i64 0, i64 2
  %30 = load i64, ptr %29, align 8, !tbaa !19
  %31 = call ptr @ggml_reshape_4d(ptr noundef %17, ptr noundef %18, i64 noundef %22, i64 noundef 1, i64 noundef %26, i64 noundef %30)
  store ptr %31, ptr %13, align 8, !tbaa !54
  call void @llvm.lifetime.start.p0(i64 8, ptr %14) #14
  %32 = load ptr, ptr %7, align 8, !tbaa !48
  %33 = load ptr, ptr %9, align 8, !tbaa !54
  %34 = load ptr, ptr %9, align 8, !tbaa !54
  %35 = getelementptr inbounds nuw %struct.ggml_tensor, ptr %34, i32 0, i32 2
  %36 = getelementptr inbounds [4 x i64], ptr %35, i64 0, i64 0
  %37 = load i64, ptr %36, align 8, !tbaa !19
  %38 = load ptr, ptr %9, align 8, !tbaa !54
  %39 = getelementptr inbounds nuw %struct.ggml_tensor, ptr %38, i32 0, i32 2
  %40 = getelementptr inbounds [4 x i64], ptr %39, i64 0, i64 1
  %41 = load i64, ptr %40, align 8, !tbaa !19
  %42 = load ptr, ptr %9, align 8, !tbaa !54
  %43 = getelementptr inbounds nuw %struct.ggml_tensor, ptr %42, i32 0, i32 2
  %44 = getelementptr inbounds [4 x i64], ptr %43, i64 0, i64 2
  %45 = load i64, ptr %44, align 8, !tbaa !19
  %46 = call ptr @ggml_reshape_4d(ptr noundef %32, ptr noundef %33, i64 noundef %37, i64 noundef 1, i64 noundef %41, i64 noundef %45)
  store ptr %46, ptr %14, align 8, !tbaa !54
  call void @llvm.lifetime.start.p0(i64 8, ptr %15) #14
  %47 = load ptr, ptr %7, align 8, !tbaa !48
  %48 = load ptr, ptr %13, align 8, !tbaa !54
  %49 = load ptr, ptr %14, align 8, !tbaa !54
  %50 = load i32, ptr %10, align 4, !tbaa !8
  %51 = load i32, ptr %11, align 4, !tbaa !8
  %52 = load i32, ptr %12, align 4, !tbaa !8
  %53 = call ptr @ggml_im2col(ptr noundef %47, ptr noundef %48, ptr noundef %49, i32 noundef %50, i32 noundef 0, i32 noundef %51, i32 noundef 0, i32 noundef %52, i32 noundef 0, i1 noundef zeroext false, i32 noundef 1)
  store ptr %53, ptr %15, align 8, !tbaa !54
  call void @llvm.lifetime.start.p0(i64 8, ptr %16) #14
  %54 = load ptr, ptr %7, align 8, !tbaa !48
  %55 = load ptr, ptr %15, align 8, !tbaa !54
  %56 = load ptr, ptr %8, align 8, !tbaa !54
  %57 = call ptr @ggml_mul_mat(ptr noundef %54, ptr noundef %55, ptr noundef %56)
  store ptr %57, ptr %16, align 8, !tbaa !54
  %58 = load ptr, ptr %7, align 8, !tbaa !48
  %59 = load ptr, ptr %16, align 8, !tbaa !54
  %60 = load ptr, ptr %9, align 8, !tbaa !54
  %61 = getelementptr inbounds nuw %struct.ggml_tensor, ptr %60, i32 0, i32 2
  %62 = getelementptr inbounds [4 x i64], ptr %61, i64 0, i64 0
  %63 = load i64, ptr %62, align 8, !tbaa !19
  %64 = load ptr, ptr %9, align 8, !tbaa !54
  %65 = getelementptr inbounds nuw %struct.ggml_tensor, ptr %64, i32 0, i32 2
  %66 = getelementptr inbounds [4 x i64], ptr %65, i64 0, i64 1
  %67 = load i64, ptr %66, align 8, !tbaa !19
  %68 = call ptr @ggml_reshape_3d(ptr noundef %58, ptr noundef %59, i64 noundef %63, i64 noundef %67, i64 noundef 1)
  store ptr %68, ptr %16, align 8, !tbaa !54
  %69 = load ptr, ptr %16, align 8, !tbaa !54
  call void @llvm.lifetime.end.p0(i64 8, ptr %16) #14
  call void @llvm.lifetime.end.p0(i64 8, ptr %15) #14
  call void @llvm.lifetime.end.p0(i64 8, ptr %14) #14
  call void @llvm.lifetime.end.p0(i64 8, ptr %13) #14
  ret ptr %69
}

; Function Attrs: nounwind uwtable
define ptr @ggml_conv_1d_dw_ph(ptr noundef %0, ptr noundef %1, ptr noundef %2, i32 noundef %3, i32 noundef %4) #5 {
  %6 = alloca ptr, align 8
  %7 = alloca ptr, align 8
  %8 = alloca ptr, align 8
  %9 = alloca i32, align 4
  %10 = alloca i32, align 4
  store ptr %0, ptr %6, align 8, !tbaa !48
  store ptr %1, ptr %7, align 8, !tbaa !54
  store ptr %2, ptr %8, align 8, !tbaa !54
  store i32 %3, ptr %9, align 4, !tbaa !8
  store i32 %4, ptr %10, align 4, !tbaa !8
  %11 = load ptr, ptr %6, align 8, !tbaa !48
  %12 = load ptr, ptr %7, align 8, !tbaa !54
  %13 = load ptr, ptr %8, align 8, !tbaa !54
  %14 = load i32, ptr %9, align 4, !tbaa !8
  %15 = load ptr, ptr %7, align 8, !tbaa !54
  %16 = getelementptr inbounds nuw %struct.ggml_tensor, ptr %15, i32 0, i32 2
  %17 = getelementptr inbounds [4 x i64], ptr %16, i64 0, i64 0
  %18 = load i64, ptr %17, align 8, !tbaa !19
  %19 = sdiv i64 %18, 2
  %20 = trunc i64 %19 to i32
  %21 = load i32, ptr %10, align 4, !tbaa !8
  %22 = call ptr @ggml_conv_1d_dw(ptr noundef %11, ptr noundef %12, ptr noundef %13, i32 noundef %14, i32 noundef %20, i32 noundef %21)
  ret ptr %22
}