; Function Attrs: nounwind uwtable
define noundef ptr @ggml_conv_1d_dw_ph(ptr noundef captures(none) %0, ptr noundef %1, ptr noundef %2, i32 noundef %3, i32 noundef %4) local_unnamed_addr #4 {
  %6 = getelementptr inbounds nuw i8, ptr %1, i64 16
  %7 = load i64, ptr %6, align 8, !tbaa !39
  %8 = sdiv i64 %7, 2
  %9 = trunc i64 %8 to i32
  %10 = getelementptr inbounds nuw i8, ptr %1, i64 24
  %11 = load i64, ptr %10, align 8, !tbaa !39
  %12 = getelementptr inbounds nuw i8, ptr %1, i64 32
  %13 = load i64, ptr %12, align 8, !tbaa !39
  %14 = tail call ptr @ggml_reshape_4d(ptr noundef %0, ptr noundef %1, i64 noundef %7, i64 noundef 1, i64 noundef %11, i64 noundef %13)
  %15 = getelementptr inbounds nuw i8, ptr %2, i64 16
  %16 = load i64, ptr %15, align 8, !tbaa !39
  %17 = getelementptr inbounds nuw i8, ptr %2, i64 24
  %18 = load i64, ptr %17, align 8, !tbaa !39
  %19 = getelementptr inbounds nuw i8, ptr %2, i64 32
  %20 = load i64, ptr %19, align 8, !tbaa !39
  %21 = tail call ptr @ggml_reshape_4d(ptr noundef %0, ptr noundef %2, i64 noundef %16, i64 noundef 1, i64 noundef %18, i64 noundef %20)
  %22 = tail call ptr @ggml_im2col(ptr noundef %0, ptr noundef %14, ptr noundef %21, i32 noundef %3, i32 noundef 0, i32 noundef %9, i32 noundef 0, i32 noundef %4, i32 noundef 0, i1 noundef zeroext false, i32 noundef 1)
  %23 = tail call ptr @ggml_mul_mat(ptr noundef %0, ptr noundef %22, ptr noundef %1)
  %24 = load i64, ptr %15, align 8, !tbaa !39
  %25 = load i64, ptr %17, align 8, !tbaa !39
  %26 = tail call noundef ptr @ggml_reshape_3d(ptr noundef %0, ptr noundef %23, i64 noundef %24, i64 noundef %25, i64 noundef 1)
  ret ptr %26
}